target datalayout = "e-m:e-p270:32:32-p271:32:32-p272:64:64-i64:64-i128:128-f80:128-n8:16:32:64-S128"
target triple = "x86_64-pc-linux-gnu"

%struct.AVRational = type { i32, i32 }
%struct.V4L2Buffer = type { ptr, ptr, i32, [8 x %struct.V4L2Plane_info], i32, %struct.v4l2_buffer, [8 x %struct.v4l2_plane], i32, i32 }
%struct.V4L2Plane_info = type { i32, ptr, i64 }
%struct.v4l2_buffer = type { i32, i32, i32, i32, i32, %struct.timeval, %struct.v4l2_timecode, i32, i32, %union.anon.0, i32, i32, %union.anon.1 }
%struct.timeval = type { i64, i64 }
%struct.v4l2_timecode = type { i32, i32, i8, i8, i8, i8, [4 x i8] }
%union.anon.0 = type { i64 }
%union.anon.1 = type { i32 }
%struct.v4l2_plane = type { i32, i32, %union.anon.2, i32, [11 x i32] }
%union.anon.2 = type { i64 }
%struct.v4l2_format = type { i32, %union.anon.3 }
%union.anon.3 = type { %struct.v4l2_window, [144 x i8] }
%struct.v4l2_window = type { %struct.v4l2_rect, i32, i32, ptr, i32, ptr, i8 }
%struct.v4l2_rect = type { i32, i32, i32, i32 }
%struct.V4L2Context = type { ptr, i32, i32, i32, %struct.v4l2_format, i32, i32, %struct.AVRational, ptr, i32, i32, i32 }
%struct.V4L2m2mContext = type { [4096 x i8], i32, %struct.V4L2Context, %struct.V4L2Context, ptr, %union.sem_t, i32, i32, i32, %struct.AVPacket, ptr, ptr, ptr }
%union.sem_t = type { i64, [24 x i8] }
%struct.AVPacket = type { ptr, i64, i64, ptr, i32, i32, i32, ptr, i32, i64, i64, ptr, ptr, %struct.AVRational }

; Function Attrs: nounwind uwtable
define i32 @ff_v4l2_buffer_enqueue(ptr noundef %0) #0 {
  %2 = alloca i32, align 4
  %3 = alloca ptr, align 8
  %4 = alloca i32, align 4
  %5 = alloca i32, align 4
  store ptr %0, ptr %3, align 8, !tbaa !9
  call void @llvm.lifetime.start.p0(i64 4, ptr %4) #8
  %6 = load ptr, ptr %3, align 8, !tbaa !9
  %7 = getelementptr inbounds nuw %struct.V4L2Buffer, ptr %6, i32 0, i32 7
  %8 = load i32, ptr %7, align 8, !tbaa !98
  %9 = load ptr, ptr %3, align 8, !tbaa !9
  %10 = getelementptr inbounds nuw %struct.V4L2Buffer, ptr %9, i32 0, i32 5
  %11 = getelementptr inbounds nuw %struct.v4l2_buffer, ptr %10, i32 0, i32 3
  store i32 %8, ptr %11, align 4, !tbaa !58
  %12 = load ptr, ptr %3, align 8, !tbaa !9
  %13 = call ptr @buf_to_m2mctx(ptr noundef %12)
  %14 = getelementptr inbounds nuw %struct.V4L2m2mContext, ptr %13, i32 0, i32 1
  %15 = load i32, ptr %14, align 8, !tbaa !105
  %16 = load ptr, ptr %3, align 8, !tbaa !9
  %17 = getelementptr inbounds nuw %struct.V4L2Buffer, ptr %16, i32 0, i32 5
  %18 = call i32 (i32, i64, ...) @ioctl(i32 noundef %15, i64 noundef 3227014671, ptr noundef %17) #8
  store i32 %18, ptr %4, align 4, !tbaa !34
  %19 = load i32, ptr %4, align 4, !tbaa !34
  %20 = icmp slt i32 %19, 0
  br i1 %20, label %21, label %25

21:                                               ; preds = %1
  %22 = call ptr @__errno_location() #9
  %23 = load i32, ptr %22, align 4, !tbaa !34
  %24 = sub nsw i32 0, %23
  store i32 %24, ptr %2, align 4
  store i32 1, ptr %5, align 4
  br label %28

25:                                               ; preds = %1
  %26 = load ptr, ptr %3, align 8, !tbaa !9
  %27 = getelementptr inbounds nuw %struct.V4L2Buffer, ptr %26, i32 0, i32 8
  store i32 1, ptr %27, align 4, !tbaa !108
  store i32 0, ptr %2, align 4
  store i32 1, ptr %5, align 4
  br label %28

28:                                               ; preds = %25, %21
  call void @llvm.lifetime.end.p0(i64 4, ptr %4) #8
  %29 = load i32, ptr %2, align 4
  ret i32 %29
}

; Function Attrs: inlinehint nounwind uwtable
define internal ptr @buf_to_m2mctx(ptr noundef %0) #1 {
  %2 = alloca ptr, align 8
  %3 = alloca ptr, align 8
  %4 = alloca ptr, align 8
  %5 = alloca ptr, align 8
  %6 = alloca ptr, align 8
  store ptr %0, ptr %2, align 8, !tbaa !9
  %7 = load ptr, ptr %2, align 8, !tbaa !9
  %8 = getelementptr inbounds nuw %struct.V4L2Buffer, ptr %7, i32 0, i32 0
  %9 = load ptr, ptr %8, align 8, !tbaa !32
  %10 = getelementptr inbounds nuw %struct.V4L2Context, ptr %9, i32 0, i32 1
  %11 = load i32, ptr %10, align 8, !tbaa !103
  %12 = icmp eq i32 %11, 2
  br i1 %12, label %62, label %13

13:                                               ; preds = %1
  %14 = load ptr, ptr %2, align 8, !tbaa !9
  %15 = getelementptr inbounds nuw %struct.V4L2Buffer, ptr %14, i32 0, i32 0
  %16 = load ptr, ptr %15, align 8, !tbaa !32
  %17 = getelementptr inbounds nuw %struct.V4L2Context, ptr %16, i32 0, i32 1
  %18 = load i32, ptr %17, align 8, !tbaa !103
  %19 = icmp eq i32 %18, 10
  br i1 %19, label %62, label %20

20:                                               ; preds = %13
  %21 = load ptr, ptr %2, align 8, !tbaa !9
  %22 = getelementptr inbounds nuw %struct.V4L2Buffer, ptr %21, i32 0, i32 0
  %23 = load ptr, ptr %22, align 8, !tbaa !32
  %24 = getelementptr inbounds nuw %struct.V4L2Context, ptr %23, i32 0, i32 1
  %25 = load i32, ptr %24, align 8, !tbaa !103
  %26 = icmp eq i32 %25, 3
  br i1 %26, label %62, label %27

27:                                               ; preds = %20
  %28 = load ptr, ptr %2, align 8, !tbaa !9
  %29 = getelementptr inbounds nuw %struct.V4L2Buffer, ptr %28, i32 0, i32 0
  %30 = load ptr, ptr %29, align 8, !tbaa !32
  %31 = getelementptr inbounds nuw %struct.V4L2Context, ptr %30, i32 0, i32 1
  %32 = load i32, ptr %31, align 8, !tbaa !103
  %33 = icmp eq i32 %32, 8
  br i1 %33, label %62, label %34

34:                                               ; preds = %27
  %35 = load ptr, ptr %2, align 8, !tbaa !9
  %36 = getelementptr inbounds nuw %struct.V4L2Buffer, ptr %35, i32 0, i32 0
  %37 = load ptr, ptr %36, align 8, !tbaa !32
  %38 = getelementptr inbounds nuw %struct.V4L2Context, ptr %37, i32 0, i32 1
  %39 = load i32, ptr %38, align 8, !tbaa !103
  %40 = icmp eq i32 %39, 5
  br i1 %40, label %62, label %41

41:                                               ; preds = %34
  %42 = load ptr, ptr %2, align 8, !tbaa !9
  %43 = getelementptr inbounds nuw %struct.V4L2Buffer, ptr %42, i32 0, i32 0
  %44 = load ptr, ptr %43, align 8, !tbaa !32
  %45 = getelementptr inbounds nuw %struct.V4L2Context, ptr %44, i32 0, i32 1
  %46 = load i32, ptr %45, align 8, !tbaa !103
  %47 = icmp eq i32 %46, 7
  br i1 %47, label %62, label %48

48:                                               ; preds = %41
  %49 = load ptr, ptr %2, align 8, !tbaa !9
  %50 = getelementptr inbounds nuw %struct.V4L2Buffer, ptr %49, i32 0, i32 0
  %51 = load ptr, ptr %50, align 8, !tbaa !32
  %52 = getelementptr inbounds nuw %struct.V4L2Context, ptr %51, i32 0, i32 1
  %53 = load i32, ptr %52, align 8, !tbaa !103
  %54 = icmp eq i32 %53, 12
  br i1 %54, label %62, label %55

55:                                               ; preds = %48
  %56 = load ptr, ptr %2, align 8, !tbaa !9
  %57 = getelementptr inbounds nuw %struct.V4L2Buffer, ptr %56, i32 0, i32 0
  %58 = load ptr, ptr %57, align 8, !tbaa !32
  %59 = getelementptr inbounds nuw %struct.V4L2Context, ptr %58, i32 0, i32 1
  %60 = load i32, ptr %59, align 8, !tbaa !103
  %61 = icmp eq i32 %60, 14
  br i1 %61, label %62, label %69

62:                                               ; preds = %55, %48, %41, %34, %27, %20, %13, %1
  call void @llvm.lifetime.start.p0(i64 8, ptr %3) #8
  %63 = load ptr, ptr %2, align 8, !tbaa !9
  %64 = getelementptr inbounds nuw %struct.V4L2Buffer, ptr %63, i32 0, i32 0
  %65 = load ptr, ptr %64, align 8, !tbaa !32
  store ptr %65, ptr %3, align 8, !tbaa !101
  %66 = load ptr, ptr %3, align 8, !tbaa !101
  %67 = getelementptr inbounds i8, ptr %66, i64 -4376
  store ptr %67, ptr %4, align 8, !tbaa !109
  call void @llvm.lifetime.end.p0(i64 8, ptr %3) #8
  %68 = load ptr, ptr %4, align 8, !tbaa !109
  br label %76

69:                                               ; preds = %55
  call void @llvm.lifetime.start.p0(i64 8, ptr %5) #8
  %70 = load ptr, ptr %2, align 8, !tbaa !9
  %71 = getelementptr inbounds nuw %struct.V4L2Buffer, ptr %70, i32 0, i32 0
  %72 = load ptr, ptr %71, align 8, !tbaa !32
  store ptr %72, ptr %5, align 8, !tbaa !101
  %73 = load ptr, ptr %5, align 8, !tbaa !101
  %74 = getelementptr inbounds i8, ptr %73, i64 -4104
  store ptr %74, ptr %6, align 8, !tbaa !109
  call void @llvm.lifetime.end.p0(i64 8, ptr %5) #8
  %75 = load ptr, ptr %6, align 8, !tbaa !109
  br label %76

76:                                               ; preds = %69, %62
  %77 = phi ptr [ %68, %62 ], [ %75, %69 ]
  ret ptr %77
}

; Function Attrs: nounwind uwtable
define internal void @v4l2_free_buffer(ptr noundef %0, ptr noundef %1) #0 {
  %3 = alloca ptr, align 8
  %4 = alloca ptr, align 8
  %5 = alloca ptr, align 8
  %6 = alloca ptr, align 8
  %7 = alloca i32, align 4
  %8 = alloca i32, align 4
  %9 = alloca i32, align 4
  %10 = alloca i32, align 4
  %11 = alloca i32, align 4
  store ptr %0, ptr %3, align 8, !tbaa !121
  store ptr %1, ptr %4, align 8, !tbaa !49
  call void @llvm.lifetime.start.p0(i64 8, ptr %5) #8
  %12 = load ptr, ptr %3, align 8, !tbaa !121
  store ptr %12, ptr %5, align 8, !tbaa !9
  call void @llvm.lifetime.start.p0(i64 8, ptr %6) #8
  %13 = load ptr, ptr %5, align 8, !tbaa !9
  %14 = call ptr @buf_to_m2mctx(ptr noundef %13)
  store ptr %14, ptr %6, align 8, !tbaa !109
  %15 = load ptr, ptr %5, align 8, !tbaa !9
  %16 = getelementptr inbounds nuw %struct.V4L2Buffer, ptr %15, i32 0, i32 2
  store i32 1, ptr %7, align 4, !tbaa !34
  %17 = load i32, ptr %7, align 4
  %18 = atomicrmw sub ptr %16, i32 %17 seq_cst, align 8
  store i32 %18, ptr %8, align 4
  %19 = load i32, ptr %8, align 4, !tbaa !34
  %20 = icmp eq i32 %19, 1
  br i1 %20, label %21, label %120

21:                                               ; preds = %2
  %22 = load ptr, ptr %6, align 8, !tbaa !109
  %23 = getelementptr inbounds nuw %struct.V4L2m2mContext, ptr %22, i32 0, i32 6
  store i32 1, ptr %9, align 4, !tbaa !34
  %24 = load i32, ptr %9, align 4
  %25 = atomicrmw sub ptr %23, i32 %24 acq_rel, align 8
  store i32 %25, ptr %10, align 4
  %26 = load ptr, ptr %6, align 8, !tbaa !109
  %27 = getelementptr inbounds nuw %struct.V4L2m2mContext, ptr %26, i32 0, i32 7
  %28 = load i32, ptr %27, align 4, !tbaa !122
  %29 = icmp ne i32 %28, 0
  br i1 %29, label %30, label %41

30:                                               ; preds = %21
  %31 = load ptr, ptr %6, align 8, !tbaa !109
  %32 = getelementptr inbounds nuw %struct.V4L2m2mContext, ptr %31, i32 0, i32 6
  %33 = load atomic i32, ptr %32 seq_cst, align 8
  store i32 %33, ptr %11, align 4
  %34 = load i32, ptr %11, align 4, !tbaa !34
  %35 = icmp ne i32 %34, 0
  br i1 %35, label %40, label %36

36:                                               ; preds = %30
  %37 = load ptr, ptr %6, align 8, !tbaa !109
  %38 = getelementptr inbounds nuw %struct.V4L2m2mContext, ptr %37, i32 0, i32 5
  %39 = call i32 @sem_post(ptr noundef %38) #8
  br label %40

40:                                               ; preds = %36, %30
  br label %117

41:                                               ; preds = %21
  %42 = load ptr, ptr %6, align 8, !tbaa !109
  %43 = getelementptr inbounds nuw %struct.V4L2m2mContext, ptr %42, i32 0, i32 8
  %44 = load i32, ptr %43, align 8, !tbaa !123
  %45 = icmp ne i32 %44, 0
  br i1 %45, label %46, label %105

46:                                               ; preds = %41
  %47 = load ptr, ptr %5, align 8, !tbaa !9
  %48 = getelementptr inbounds nuw %struct.V4L2Buffer, ptr %47, i32 0, i32 0
  %49 = load ptr, ptr %48, align 8, !tbaa !32
  %50 = getelementptr inbounds nuw %struct.V4L2Context, ptr %49, i32 0, i32 1
  %51 = load i32, ptr %50, align 8, !tbaa !103
  %52 = icmp eq i32 %51, 2
  br i1 %52, label %102, label %53

53:                                               ; preds = %46
  %54 = load ptr, ptr %5, align 8, !tbaa !9
  %55 = getelementptr inbounds nuw %struct.V4L2Buffer, ptr %54, i32 0, i32 0
  %56 = load ptr, ptr %55, align 8, !tbaa !32
  %57 = getelementptr inbounds nuw %struct.V4L2Context, ptr %56, i32 0, i32 1
  %58 = load i32, ptr %57, align 8, !tbaa !103
  %59 = icmp eq i32 %58, 10
  br i1 %59, label %102, label %60

60:                                               ; preds = %53
  %61 = load ptr, ptr %5, align 8, !tbaa !9
  %62 = getelementptr inbounds nuw %struct.V4L2Buffer, ptr %61, i32 0, i32 0
  %63 = load ptr, ptr %62, align 8, !tbaa !32
  %64 = getelementptr inbounds nuw %struct.V4L2Context, ptr %63, i32 0, i32 1
  %65 = load i32, ptr %64, align 8, !tbaa !103
  %66 = icmp eq i32 %65, 3
  br i1 %66, label %102, label %67

67:                                               ; preds = %60
  %68 = load ptr, ptr %5, align 8, !tbaa !9
  %69 = getelementptr inbounds nuw %struct.V4L2Buffer, ptr %68, i32 0, i32 0
  %70 = load ptr, ptr %69, align 8, !tbaa !32
  %71 = getelementptr inbounds nuw %struct.V4L2Context, ptr %70, i32 0, i32 1
  %72 = load i32, ptr %71, align 8, !tbaa !103
  %73 = icmp eq i32 %72, 8
  br i1 %73, label %102, label %74

74:                                               ; preds = %67
  %75 = load ptr, ptr %5, align 8, !tbaa !9
  %76 = getelementptr inbounds nuw %struct.V4L2Buffer, ptr %75, i32 0, i32 0
  %77 = load ptr, ptr %76, align 8, !tbaa !32
  %78 = getelementptr inbounds nuw %struct.V4L2Context, ptr %77, i32 0, i32 1
  %79 = load i32, ptr %78, align 8, !tbaa !103
  %80 = icmp eq i32 %79, 5
  br i1 %80, label %102, label %81

81:                                               ; preds = %74
  %82 = load ptr, ptr %5, align 8, !tbaa !9
  %83 = getelementptr inbounds nuw %struct.V4L2Buffer, ptr %82, i32 0, i32 0
  %84 = load ptr, ptr %83, align 8, !tbaa !32
  %85 = getelementptr inbounds nuw %struct.V4L2Context, ptr %84, i32 0, i32 1
  %86 = load i32, ptr %85, align 8, !tbaa !103
  %87 = icmp eq i32 %86, 7
  br i1 %87, label %102, label %88

88:                                               ; preds = %81
  %89 = load ptr, ptr %5, align 8, !tbaa !9
  %90 = getelementptr inbounds nuw %struct.V4L2Buffer, ptr %89, i32 0, i32 0
  %91 = load ptr, ptr %90, align 8, !tbaa !32
  %92 = getelementptr inbounds nuw %struct.V4L2Context, ptr %91, i32 0, i32 1
  %93 = load i32, ptr %92, align 8, !tbaa !103
  %94 = icmp eq i32 %93, 12
  br i1 %94, label %102, label %95

95:                                               ; preds = %88
  %96 = load ptr, ptr %5, align 8, !tbaa !9
  %97 = getelementptr inbounds nuw %struct.V4L2Buffer, ptr %96, i32 0, i32 0
  %98 = load ptr, ptr %97, align 8, !tbaa !32
  %99 = getelementptr inbounds nuw %struct.V4L2Context, ptr %98, i32 0, i32 1
  %100 = load i32, ptr %99, align 8, !tbaa !103
  %101 = icmp eq i32 %100, 14
  br i1 %101, label %102, label %105

102:                                              ; preds = %95, %88, %81, %74, %67, %60, %53, %46
  %103 = load ptr, ptr %5, align 8, !tbaa !9
  %104 = getelementptr inbounds nuw %struct.V4L2Buffer, ptr %103, i32 0, i32 8
  store i32 0, ptr %104, align 4, !tbaa !108
  br label %116

105:                                              ; preds = %95, %41
  %106 = load ptr, ptr %5, align 8, !tbaa !9
  %107 = getelementptr inbounds nuw %struct.V4L2Buffer, ptr %106, i32 0, i32 0
  %108 = load ptr, ptr %107, align 8, !tbaa !32
  %109 = getelementptr inbounds nuw %struct.V4L2Context, ptr %108, i32 0, i32 10
  %110 = load i32, ptr %109, align 4, !tbaa !124
  %111 = icmp ne i32 %110, 0
  br i1 %111, label %112, label %115

112:                                              ; preds = %105
  %113 = load ptr, ptr %5, align 8, !tbaa !9
  %114 = call i32 @ff_v4l2_buffer_enqueue(ptr noundef %113)
  br label %115

115:                                              ; preds = %112, %105
  br label %116

116:                                              ; preds = %115, %102
  br label %117

117:                                              ; preds = %116, %40
  %118 = load ptr, ptr %5, align 8, !tbaa !9
  %119 = getelementptr inbounds nuw %struct.V4L2Buffer, ptr %118, i32 0, i32 1
  call void @av_refstruct_unref(ptr noundef %119)
  br label %120

120:                                              ; preds = %117, %2
  call void @llvm.lifetime.end.p0(i64 8, ptr %6) #8
  call void @llvm.lifetime.end.p0(i64 8, ptr %5) #8
  ret void
}