; Function Attrs: nounwind uwtable
define internal void @v4l2_free_buffer(ptr noundef %0, ptr readnone captures(none) %1) #0 {
  %.val = load ptr, ptr %0, align 8, !tbaa !19
  %3 = getelementptr inbounds nuw i8, ptr %.val, i64 8
  %4 = load i32, ptr %3, align 8, !tbaa !26
  %switch.tableidx = add i32 %4, -2
  %5 = icmp ult i32 %switch.tableidx, 13
  br i1 %5, label %switch.lookup, label %buf_to_m2mctx.exit

switch.lookup:                                    ; preds = %2
  %6 = zext nneg i32 %switch.tableidx to i64
  %switch.gep = getelementptr inbounds nuw [13 x i64], ptr @switch.table.v4l2_free_buffer.16, i64 0, i64 %6
  %switch.load = load i64, ptr %switch.gep, align 8
  br label %buf_to_m2mctx.exit

buf_to_m2mctx.exit:                               ; preds = %2, %switch.lookup
  %.sink.i = phi i64 [ %switch.load, %switch.lookup ], [ -4104, %2 ]
  %7 = getelementptr inbounds i8, ptr %.val, i64 %.sink.i
  %8 = getelementptr inbounds nuw i8, ptr %0, i64 16
  %9 = atomicrmw sub ptr %8, i32 1 seq_cst, align 8
  %10 = icmp eq i32 %9, 1
  br i1 %10, label %11, label %49

11:                                               ; preds = %buf_to_m2mctx.exit
  %12 = getelementptr inbounds nuw i8, ptr %7, i64 4688
  %13 = atomicrmw sub ptr %12, i32 1 acq_rel, align 8
  %14 = getelementptr inbounds nuw i8, ptr %7, i64 4692
  %15 = load i32, ptr %14, align 4, !tbaa !111
  %.not = icmp eq i32 %15, 0
  br i1 %.not, label %21, label %16

16:                                               ; preds = %11
  %17 = load atomic i32, ptr %12 seq_cst, align 8
  %.not25 = icmp eq i32 %17, 0
  br i1 %.not25, label %18, label %ff_v4l2_buffer_enqueue.exit

18:                                               ; preds = %16
  %19 = getelementptr inbounds nuw i8, ptr %7, i64 4656
  %20 = tail call i32 @sem_post(ptr noundef nonnull %19) #8
  br label %ff_v4l2_buffer_enqueue.exit

21:                                               ; preds = %11
  %22 = getelementptr inbounds nuw i8, ptr %7, i64 4696
  %23 = load i32, ptr %22, align 8, !tbaa !112
  %.not23 = icmp eq i32 %23, 0
  %.pre = load ptr, ptr %0, align 8, !tbaa !19
  br i1 %.not23, label %29, label %24

24:                                               ; preds = %21
  %25 = getelementptr inbounds nuw i8, ptr %.pre, i64 8
  %26 = load i32, ptr %25, align 8, !tbaa !26
  switch i32 %26, label %29 [
    i32 2, label %27
    i32 10, label %27
    i32 3, label %27
    i32 8, label %27
    i32 5, label %27
    i32 7, label %27
    i32 12, label %27
    i32 14, label %27
  ]

27:                                               ; preds = %24, %24, %24, %24, %24, %24, %24, %24
  %28 = getelementptr inbounds nuw i8, ptr %0, i64 828
  store i32 0, ptr %28, align 4, !tbaa !82
  br label %ff_v4l2_buffer_enqueue.exit

29:                                               ; preds = %24, %21
  %30 = getelementptr inbounds nuw i8, ptr %.pre, i64 260
  %31 = load i32, ptr %30, align 4, !tbaa !113
  %.not24 = icmp eq i32 %31, 0
  br i1 %.not24, label %ff_v4l2_buffer_enqueue.exit, label %32

32:                                               ; preds = %29
  %33 = getelementptr inbounds nuw i8, ptr %0, i64 824
  %34 = load i32, ptr %33, align 8, !tbaa !105
  %35 = getelementptr inbounds nuw i8, ptr %0, i64 224
  %36 = getelementptr inbounds nuw i8, ptr %0, i64 236
  store i32 %34, ptr %36, align 4, !tbaa !86
  %37 = getelementptr inbounds nuw i8, ptr %.pre, i64 8
  %38 = load i32, ptr %37, align 8, !tbaa !26
  %switch.tableidx27 = add i32 %38, -2
  %39 = icmp ult i32 %switch.tableidx27, 13
  br i1 %39, label %switch.lookup26, label %buf_to_m2mctx.exit.i

switch.lookup26:                                  ; preds = %32
  %40 = zext nneg i32 %switch.tableidx27 to i64
  %switch.gep28 = getelementptr inbounds nuw [13 x i64], ptr @switch.table.v4l2_free_buffer.16, i64 0, i64 %40
  %switch.load29 = load i64, ptr %switch.gep28, align 8
  br label %buf_to_m2mctx.exit.i

buf_to_m2mctx.exit.i:                             ; preds = %32, %switch.lookup26
  %.sink.i.i = phi i64 [ %switch.load29, %switch.lookup26 ], [ -4104, %32 ]
  %41 = getelementptr inbounds i8, ptr %.pre, i64 %.sink.i.i
  %42 = getelementptr inbounds nuw i8, ptr %41, i64 4096
  %43 = load i32, ptr %42, align 8, !tbaa !108
  %44 = tail call i32 (i32, i64, ...) @ioctl(i32 noundef %43, i64 noundef 3227014671, ptr noundef nonnull %35) #8
  %45 = icmp slt i32 %44, 0
  br i1 %45, label %ff_v4l2_buffer_enqueue.exit, label %46

46:                                               ; preds = %buf_to_m2mctx.exit.i
  %47 = getelementptr inbounds nuw i8, ptr %0, i64 828
  store i32 1, ptr %47, align 4, !tbaa !82
  br label %ff_v4l2_buffer_enqueue.exit

ff_v4l2_buffer_enqueue.exit:                      ; preds = %buf_to_m2mctx.exit.i, %46, %27, %29, %16, %18
  %48 = getelementptr inbounds nuw i8, ptr %0, i64 8
  tail call void @av_refstruct_unref(ptr noundef nonnull %48) #8
  br label %49

49:                                               ; preds = %ff_v4l2_buffer_enqueue.exit, %buf_to_m2mctx.exit
  ret void
}